; Function Attrs: mustprogress uwtable
define void @_ZNK6casadi8FunctionclERKSt3mapINSt7__cxx1112basic_stringIcSt11char_traitsIcESaIcEEENS_6MatrixINS_6SXElemEEESt4lessIS7_ESaISt4pairIKS7_SA_EEE(ptr dead_on_unwind noalias nonnull writable sret(%"class.std::map.19") align 8 initializes((8, 12), (16, 24)) %0, ptr noundef nonnull align 8 dereferenceable(8) %1, ptr noundef nonnull align 8 dereferenceable(48) %2) local_unnamed_addr #4 align 2 personality ptr @__gxx_personality_v0 {
  %4 = getelementptr inbounds nuw i8, ptr %0, i64 8
  store i32 0, ptr %4, align 8, !tbaa !110
  %5 = getelementptr inbounds nuw i8, ptr %0, i64 16
  store ptr null, ptr %5, align 8, !tbaa !48
  %6 = getelementptr inbounds nuw i8, ptr %0, i64 24
  store ptr %4, ptr %6, align 8, !tbaa !74
  %7 = getelementptr inbounds nuw i8, ptr %0, i64 32
  store ptr %4, ptr %7, align 8, !tbaa !75
  %8 = getelementptr inbounds nuw i8, ptr %0, i64 40
  store i64 0, ptr %8, align 8, !tbaa !76
  invoke void @_ZNK6casadi8Function4callERKSt3mapINSt7__cxx1112basic_stringIcSt11char_traitsIcESaIcEEENS_6MatrixINS_6SXElemEEESt4lessIS7_ESaISt4pairIKS7_SA_EEERSH_bb(ptr noundef nonnull align 8 dereferenceable(8) %1, ptr noundef nonnull align 8 dereferenceable(48) %2, ptr noundef nonnull align 8 dereferenceable(48) %0, i1 noundef zeroext false, i1 noundef zeroext false)
          to label %11 unwind label %9

9:                                                ; preds = %3
  %10 = landingpad { ptr, i32 }
          cleanup
  tail call void @_ZNSt3mapINSt7__cxx1112basic_stringIcSt11char_traitsIcESaIcEEEN6casadi6MatrixINS6_6SXElemEEESt4lessIS5_ESaISt4pairIKS5_S9_EEED2Ev(ptr noundef nonnull align 8 dereferenceable(48) %0) #30
  resume { ptr, i32 } %10

11:                                               ; preds = %3
  ret void
}